target datalayout = "e-m:e-p270:32:32-p271:32:32-p272:64:64-i64:64-i128:128-f80:128-n8:16:32:64-S128"
target triple = "x86_64-pc-linux-gnu"

%struct.ForEachState = type { ptr, i32 }
%struct.List = type { i32, i32, i32, ptr, [0 x %union.ListCell] }
%union.ListCell = type { ptr }

@.str.1 = private unnamed_addr constant [11 x i8] c"lockcmds.c\00", align 1
@.str.2 = private unnamed_addr constant [39 x i8] c"could not obtain lock on relation \22%s\22\00", align 1
@__func__.LockTableRecurse = private unnamed_addr constant [17 x i8] c"LockTableRecurse\00", align 1

; Function Attrs: inlinehint nounwind uwtable
define internal i64 @ObjectIdGetDatum(i32 noundef %0) #5 {
  %2 = alloca i32, align 4
  store i32 %0, ptr %2, align 4
  %3 = load i32, ptr %2, align 4
  %4 = zext i32 %3 to i64
  ret i64 %4
}

; Function Attrs: nounwind uwtable
define internal void @LockTableRecurse(i32 noundef %0, i32 noundef %1, i1 noundef zeroext %2) #0 {
  %4 = alloca i32, align 4
  %5 = alloca i32, align 4
  %6 = alloca i8, align 1
  %7 = alloca ptr, align 8
  %8 = alloca ptr, align 8
  %9 = alloca %struct.ForEachState, align 8
  %10 = alloca i32, align 4
  %11 = alloca i32, align 4
  %12 = alloca ptr, align 8
  store i32 %0, ptr %4, align 4
  store i32 %1, ptr %5, align 4
  %13 = zext i1 %2 to i8
  store i8 %13, ptr %6, align 1
  call void @llvm.lifetime.start.p0(i64 8, ptr %7) #6
  call void @llvm.lifetime.start.p0(i64 8, ptr %8) #6
  %14 = load i32, ptr %4, align 4
  %15 = call ptr @find_all_inheritors(i32 noundef %14, i32 noundef 0, ptr noundef null)
  store ptr %15, ptr %7, align 8
  call void @llvm.lifetime.start.p0(i64 16, ptr %9) #6
  %16 = getelementptr inbounds nuw %struct.ForEachState, ptr %9, i32 0, i32 0
  %17 = load ptr, ptr %7, align 8
  store ptr %17, ptr %16, align 8
  %18 = getelementptr inbounds nuw %struct.ForEachState, ptr %9, i32 0, i32 1
  store i32 0, ptr %18, align 8
  %19 = getelementptr i8, ptr %9, i64 12
  call void @llvm.memset.p0.i64(ptr align 4 %19, i8 0, i64 4, i1 false)
  br label %20

20:                                               ; preds = %97, %3
  %21 = getelementptr inbounds nuw %struct.ForEachState, ptr %9, i32 0, i32 0
  %22 = load ptr, ptr %21, align 8
  %23 = icmp ne ptr %22, null
  br i1 %23, label %24, label %41

24:                                               ; preds = %20
  %25 = getelementptr inbounds nuw %struct.ForEachState, ptr %9, i32 0, i32 1
  %26 = load i32, ptr %25, align 8
  %27 = getelementptr inbounds nuw %struct.ForEachState, ptr %9, i32 0, i32 0
  %28 = load ptr, ptr %27, align 8
  %29 = getelementptr inbounds nuw %struct.List, ptr %28, i32 0, i32 1
  %30 = load i32, ptr %29, align 4
  %31 = icmp slt i32 %26, %30
  br i1 %31, label %32, label %41

32:                                               ; preds = %24
  %33 = getelementptr inbounds nuw %struct.ForEachState, ptr %9, i32 0, i32 0
  %34 = load ptr, ptr %33, align 8
  %35 = getelementptr inbounds nuw %struct.List, ptr %34, i32 0, i32 3
  %36 = load ptr, ptr %35, align 8
  %37 = getelementptr inbounds nuw %struct.ForEachState, ptr %9, i32 0, i32 1
  %38 = load i32, ptr %37, align 8
  %39 = sext i32 %38 to i64
  %40 = getelementptr inbounds %union.ListCell, ptr %36, i64 %39
  store ptr %40, ptr %8, align 8
  br label %42

41:                                               ; preds = %24, %20
  store ptr null, ptr %8, align 8
  br label %42

42:                                               ; preds = %41, %32
  %43 = phi i32 [ 1, %32 ], [ 0, %41 ]
  %44 = icmp ne i32 %43, 0
  br i1 %44, label %46, label %45

45:                                               ; preds = %42
  store i32 2, ptr %10, align 4
  call void @llvm.lifetime.end.p0(i64 16, ptr %9) #6
  br label %101

46:                                               ; preds = %42
  call void @llvm.lifetime.start.p0(i64 4, ptr %11) #6
  %47 = load ptr, ptr %8, align 8
  %48 = load i32, ptr %47, align 8
  store i32 %48, ptr %11, align 4
  %49 = load i32, ptr %11, align 4
  %50 = load i32, ptr %4, align 4
  %51 = icmp eq i32 %49, %50
  br i1 %51, label %52, label %53

52:                                               ; preds = %46
  store i32 4, ptr %10, align 4
  br label %94

53:                                               ; preds = %46
  %54 = load i8, ptr %6, align 1, !range !4, !noundef !5
  %55 = trunc i8 %54 to i1
  br i1 %55, label %59, label %56

56:                                               ; preds = %53
  %57 = load i32, ptr %11, align 4
  %58 = load i32, ptr %5, align 4
  call void @LockRelationOid(i32 noundef %57, i32 noundef %58)
  br label %86

59:                                               ; preds = %53
  %60 = load i32, ptr %11, align 4
  %61 = load i32, ptr %5, align 4
  %62 = call zeroext i1 @ConditionalLockRelationOid(i32 noundef %60, i32 noundef %61)
  br i1 %62, label %85, label %63

63:                                               ; preds = %59
  call void @llvm.lifetime.start.p0(i64 8, ptr %12) #6
  %64 = load i32, ptr %11, align 4
  %65 = call ptr @get_rel_name(i32 noundef %64)
  store ptr %65, ptr %12, align 8
  %66 = load ptr, ptr %12, align 8
  %67 = icmp ne ptr %66, null
  br i1 %67, label %69, label %68

68:                                               ; preds = %63
  store i32 4, ptr %10, align 4
  br label %82

69:                                               ; preds = %63
  br label %70

70:                                               ; preds = %69
  br i1 true, label %71, label %73

71:                                               ; preds = %70
  %72 = call zeroext i1 @errstart_cold(i32 noundef 21, ptr noundef null) #7
  br i1 %72, label %75, label %79

73:                                               ; preds = %70
  %74 = call zeroext i1 @errstart(i32 noundef 21, ptr noundef null)
  br i1 %74, label %75, label %79

75:                                               ; preds = %73, %71
  %76 = call i32 @errcode(i32 noundef 50463045)
  %77 = load ptr, ptr %12, align 8
  %78 = call i32 (ptr, ...) @errmsg(ptr noundef @.str.2, ptr noundef %77)
  call void @errfinish(ptr noundef @.str.1, i32 noundef 144, ptr noundef @__func__.LockTableRecurse)
  br label %79

79:                                               ; preds = %75, %73, %71
  unreachable

80:                                               ; No predecessors!
  br label %81

81:                                               ; preds = %80
  store i32 0, ptr %10, align 4
  br label %82

82:                                               ; preds = %81, %68
  call void @llvm.lifetime.end.p0(i64 8, ptr %12) #6
  %83 = load i32, ptr %10, align 4
  switch i32 %83, label %94 [
    i32 0, label %84
  ]

84:                                               ; preds = %82
  br label %85

85:                                               ; preds = %84, %59
  br label %86

86:                                               ; preds = %85, %56
  %87 = load i32, ptr %11, align 4
  %88 = call i64 @ObjectIdGetDatum(i32 noundef %87)
  %89 = call zeroext i1 @SearchSysCacheExists(i32 noundef 57, i64 noundef %88, i64 noundef 0, i64 noundef 0, i64 noundef 0)
  br i1 %89, label %93, label %90

90:                                               ; preds = %86
  %91 = load i32, ptr %11, align 4
  %92 = load i32, ptr %5, align 4
  call void @UnlockRelationOid(i32 noundef %91, i32 noundef %92)
  store i32 4, ptr %10, align 4
  br label %94

93:                                               ; preds = %86
  store i32 0, ptr %10, align 4
  br label %94

94:                                               ; preds = %93, %90, %82, %52
  call void @llvm.lifetime.end.p0(i64 4, ptr %11) #6
  %95 = load i32, ptr %10, align 4
  switch i32 %95, label %102 [
    i32 0, label %96
    i32 4, label %97
  ]

96:                                               ; preds = %94
  br label %97

97:                                               ; preds = %96, %94
  %98 = getelementptr inbounds nuw %struct.ForEachState, ptr %9, i32 0, i32 1
  %99 = load i32, ptr %98, align 8
  %100 = add i32 %99, 1
  store i32 %100, ptr %98, align 8
  br label %20, !llvm.loop !8

101:                                              ; preds = %45
  call void @llvm.lifetime.end.p0(i64 8, ptr %8) #6
  call void @llvm.lifetime.end.p0(i64 8, ptr %7) #6
  ret void

102:                                              ; preds = %94
  unreachable
}