; Function Attrs: nounwind uwtable
define internal fastcc void @LockTableRecurse(i32 noundef %0, i32 noundef %1, i1 noundef zeroext %2) unnamed_addr #0 {
  %4 = tail call ptr @find_all_inheritors(i32 noundef %0, i32 noundef 0, ptr noundef null) #5
  %.not = icmp eq ptr %4, null
  br i1 %.not, label %._crit_edge, label %.lr.ph

.lr.ph:                                           ; preds = %3
  %5 = getelementptr inbounds nuw i8, ptr %4, i64 4
  %6 = getelementptr inbounds nuw i8, ptr %4, i64 16
  %7 = load i32, ptr %5, align 4
  %8 = icmp sgt i32 %7, 0
  br i1 %2, label %.lr.ph.split.us.split, label %.lr.ph.split.split

.lr.ph.split.us.split:                            ; preds = %.lr.ph
  br i1 %8, label %.lr.ph33, label %._crit_edge

.lr.ph33:                                         ; preds = %.lr.ph.split.us.split, %21
  %indvars.iv36 = phi i64 [ %indvars.iv.next37, %21 ], [ 0, %.lr.ph.split.us.split ]
  %9 = load ptr, ptr %6, align 8
  %10 = getelementptr inbounds nuw %union.ListCell, ptr %9, i64 %indvars.iv36
  %11 = load i32, ptr %10, align 8
  %12 = icmp eq i32 %11, %0
  br i1 %12, label %21, label %13

13:                                               ; preds = %.lr.ph33
  %14 = tail call zeroext i1 @ConditionalLockRelationOid(i32 noundef %11, i32 noundef %1) #5
  br i1 %14, label %17, label %15

15:                                               ; preds = %13
  %16 = tail call ptr @get_rel_name(i32 noundef %11) #5
  %.not24.us = icmp eq ptr %16, null
  br i1 %.not24.us, label %21, label %.split.us

17:                                               ; preds = %13
  %18 = zext i32 %11 to i64
  %19 = tail call zeroext i1 @SearchSysCacheExists(i32 noundef 57, i64 noundef %18, i64 noundef 0, i64 noundef 0, i64 noundef 0) #5
  br i1 %19, label %21, label %20

20:                                               ; preds = %17
  tail call void @UnlockRelationOid(i32 noundef %11, i32 noundef %1) #5
  br label %21

21:                                               ; preds = %20, %17, %15, %.lr.ph33
  %indvars.iv.next37 = add nuw nsw i64 %indvars.iv36, 1
  %22 = load i32, ptr %5, align 4
  %23 = sext i32 %22 to i64
  %24 = icmp slt i64 %indvars.iv.next37, %23
  br i1 %24, label %.lr.ph33, label %._crit_edge

.lr.ph.split.split:                               ; preds = %.lr.ph
  br i1 %8, label %.lr.ph31, label %._crit_edge

._crit_edge:                                      ; preds = %36, %21, %.lr.ph.split.us.split, %.lr.ph.split.split, %3
  ret void

.lr.ph31:                                         ; preds = %.lr.ph.split.split, %36
  %indvars.iv = phi i64 [ %indvars.iv.next, %36 ], [ 0, %.lr.ph.split.split ]
  %25 = load ptr, ptr %6, align 8
  %26 = getelementptr inbounds nuw %union.ListCell, ptr %25, i64 %indvars.iv
  %27 = load i32, ptr %26, align 8
  %28 = icmp eq i32 %27, %0
  br i1 %28, label %36, label %29

29:                                               ; preds = %.lr.ph31
  tail call void @LockRelationOid(i32 noundef %27, i32 noundef %1) #5
  %30 = zext i32 %27 to i64
  %31 = tail call zeroext i1 @SearchSysCacheExists(i32 noundef 57, i64 noundef %30, i64 noundef 0, i64 noundef 0, i64 noundef 0) #5
  br i1 %31, label %36, label %35

.split.us:                                        ; preds = %15
  %32 = tail call zeroext i1 @errstart_cold(i32 noundef 21, ptr noundef null) #6
  tail call void @llvm.assume(i1 %32)
  %33 = tail call i32 @errcode(i32 noundef 50463045) #5
  %34 = tail call i32 (ptr, ...) @errmsg(ptr noundef nonnull @.str.2, ptr noundef nonnull %16) #5
  tail call void @errfinish(ptr noundef nonnull @.str.1, i32 noundef 144, ptr noundef nonnull @__func__.LockTableRecurse) #5
  unreachable

35:                                               ; preds = %29
  tail call void @UnlockRelationOid(i32 noundef %27, i32 noundef %1) #5
  br label %36

36:                                               ; preds = %29, %.lr.ph31, %35
  %indvars.iv.next = add nuw nsw i64 %indvars.iv, 1
  %37 = load i32, ptr %5, align 4
  %38 = sext i32 %37 to i64
  %39 = icmp slt i64 %indvars.iv.next, %38
  br i1 %39, label %.lr.ph31, label %._crit_edge
}